target datalayout = "e-m:e-p270:32:32-p271:32:32-p272:64:64-i64:64-i128:128-f80:128-n8:16:32:64-S128"
target triple = "x86_64-pc-linux-gnu"

%struct._StringInfo = type { ptr, i32 }
%struct._SslDecryptSession = type { [48 x i8], [256 x i8], [32 x i8], [32 x i8], %struct._StringInfo, %struct._StringInfo, %struct._StringInfo, %struct._StringInfo, %struct._StringInfo, %struct._StringInfo, %struct._StringInfo, [24 x i8], %struct._StringInfo, [24 x i8], %struct._StringInfo, i32, ptr, ptr, ptr, ptr, ptr, ptr, %struct._StringInfo, %struct._StringInfo, %struct._SslSession, i8, %struct._StringInfo }
%struct._SslSession = type { i32, i32, i16, i8, [32 x i8], i8, i8, i32, i32, i32, %struct._StringInfo, i8, i8, [8 x i8], [8 x i8], [16 x i8], %struct._address, i32, i32, ptr, ptr, ptr, i32, i8, i32, i32, ptr, ptr, i8, i8, i8, i8, i8, [2 x i64], [2 x i64] }
%struct._address = type { i32, i32, ptr, ptr }
%struct._SslCipherSuite = type { i32, i32, i32, i32, i32 }

@proto_tls = internal global i32 0, align 4
@tls_get_cipher_info.gcry_modes = internal constant [6 x i32] [i32 4, i32 3, i32 9, i32 8, i32 8, i32 10], align 16
@tls_get_cipher_info.gcry_mds = internal constant [5 x i32] [i32 1, i32 2, i32 8, i32 9, i32 -1], align 16

; Function Attrs: null_pointer_is_valid sspstrong uwtable
define hidden zeroext i1 @tls_get_cipher_info(ptr noundef %0, i16 noundef zeroext %1, ptr noundef %2, ptr noundef %3, ptr noundef %4) #0 {
  %6 = alloca i1, align 1
  %7 = alloca ptr, align 8
  %8 = alloca i16, align 2
  %9 = alloca ptr, align 8
  %10 = alloca ptr, align 8
  %11 = alloca ptr, align 8
  %12 = alloca ptr, align 8
  %13 = alloca i32, align 4
  %14 = alloca ptr, align 8
  %15 = alloca ptr, align 8
  %16 = alloca ptr, align 8
  %17 = alloca i32, align 4
  %18 = alloca i32, align 4
  %19 = alloca i32, align 4
  store ptr %0, ptr %7, align 8
  store i16 %1, ptr %8, align 2
  store ptr %2, ptr %9, align 8
  store ptr %3, ptr %10, align 8
  store ptr %4, ptr %11, align 8
  %20 = load i16, ptr %8, align 2
  %21 = zext i16 %20 to i32
  %22 = icmp eq i32 %21, 0
  br i1 %22, label %23, label %47

23:                                               ; preds = %5
  call void @llvm.lifetime.start.p0(i64 8, ptr %12) #18
  %24 = load ptr, ptr %7, align 8
  %25 = call ptr @find_conversation_pinfo(ptr noundef %24, i32 noundef 0)
  store ptr %25, ptr %12, align 8
  %26 = load ptr, ptr %12, align 8
  %27 = icmp ne ptr %26, null
  br i1 %27, label %29, label %28

28:                                               ; preds = %23
  store i1 false, ptr %6, align 1
  store i32 1, ptr %13, align 4
  br label %44

29:                                               ; preds = %23
  call void @llvm.lifetime.start.p0(i64 8, ptr %14) #18
  %30 = load ptr, ptr %12, align 8
  %31 = load i32, ptr @proto_tls, align 4
  %32 = call ptr @conversation_get_proto_data(ptr noundef %30, i32 noundef %31)
  store ptr %32, ptr %14, align 8
  %33 = load ptr, ptr %14, align 8
  %34 = icmp eq ptr %33, null
  br i1 %34, label %35, label %36

35:                                               ; preds = %29
  store i1 false, ptr %6, align 1
  store i32 1, ptr %13, align 4
  br label %43

36:                                               ; preds = %29
  call void @llvm.lifetime.start.p0(i64 8, ptr %15) #18
  %37 = load ptr, ptr %14, align 8
  store ptr %37, ptr %15, align 8
  %38 = load ptr, ptr %15, align 8
  %39 = getelementptr inbounds nuw %struct._SslDecryptSession, ptr %38, i32 0, i32 24
  %40 = getelementptr inbounds nuw %struct._SslSession, ptr %39, i32 0, i32 0
  %41 = load i32, ptr %40, align 8
  %42 = trunc i32 %41 to i16
  store i16 %42, ptr %8, align 2
  call void @llvm.lifetime.end.p0(i64 8, ptr %15) #18
  store i32 0, ptr %13, align 4
  br label %43

43:                                               ; preds = %36, %35
  call void @llvm.lifetime.end.p0(i64 8, ptr %14) #18
  br label %44

44:                                               ; preds = %43, %28
  call void @llvm.lifetime.end.p0(i64 8, ptr %12) #18
  %45 = load i32, ptr %13, align 4
  switch i32 %45, label %102 [
    i32 0, label %46
    i32 1, label %100
  ]

46:                                               ; preds = %44
  br label %47

47:                                               ; preds = %46, %5
  call void @llvm.lifetime.start.p0(i64 8, ptr %16) #18
  %48 = load i16, ptr %8, align 2
  %49 = zext i16 %48 to i32
  %50 = call ptr @ssl_find_cipher(i32 noundef %49)
  store ptr %50, ptr %16, align 8
  %51 = load ptr, ptr %16, align 8
  %52 = icmp ne ptr %51, null
  br i1 %52, label %54, label %53

53:                                               ; preds = %47
  store i1 false, ptr %6, align 1
  store i32 1, ptr %13, align 4
  br label %99

54:                                               ; preds = %47
  call void @llvm.lifetime.start.p0(i64 4, ptr %17) #18
  %55 = load ptr, ptr %16, align 8
  %56 = getelementptr inbounds nuw %struct._SslCipherSuite, ptr %55, i32 0, i32 4
  %57 = load i32, ptr %56, align 4
  %58 = zext i32 %57 to i64
  %59 = getelementptr [6 x i32], ptr @tls_get_cipher_info.gcry_modes, i64 0, i64 %58
  %60 = load i32, ptr %59, align 4
  store i32 %60, ptr %17, align 4
  call void @llvm.lifetime.start.p0(i64 4, ptr %18) #18
  %61 = load ptr, ptr %16, align 8
  %62 = call i32 @ssl_get_cipher_algo(ptr noundef %61)
  store i32 %62, ptr %18, align 4
  call void @llvm.lifetime.start.p0(i64 4, ptr %19) #18
  %63 = load ptr, ptr %16, align 8
  %64 = getelementptr inbounds nuw %struct._SslCipherSuite, ptr %63, i32 0, i32 3
  %65 = load i32, ptr %64, align 4
  %66 = sub i32 %65, 64
  %67 = sext i32 %66 to i64
  %68 = getelementptr [5 x i32], ptr @tls_get_cipher_info.gcry_mds, i64 0, i64 %67
  %69 = load i32, ptr %68, align 4
  store i32 %69, ptr %19, align 4
  %70 = load i32, ptr %17, align 4
  %71 = icmp eq i32 %70, -1
  br i1 %71, label %78, label %72

72:                                               ; preds = %54
  %73 = load i32, ptr %18, align 4
  %74 = icmp eq i32 %73, 0
  br i1 %74, label %78, label %75

75:                                               ; preds = %72
  %76 = load i32, ptr %19, align 4
  %77 = icmp eq i32 %76, -1
  br i1 %77, label %78, label %79

78:                                               ; preds = %75, %72, %54
  store i1 false, ptr %6, align 1
  store i32 1, ptr %13, align 4
  br label %98

79:                                               ; preds = %75
  %80 = load ptr, ptr %9, align 8
  %81 = icmp ne ptr %80, null
  br i1 %81, label %82, label %85

82:                                               ; preds = %79
  %83 = load i32, ptr %18, align 4
  %84 = load ptr, ptr %9, align 8
  store i32 %83, ptr %84, align 4
  br label %85

85:                                               ; preds = %82, %79
  %86 = load ptr, ptr %10, align 8
  %87 = icmp ne ptr %86, null
  br i1 %87, label %88, label %91

88:                                               ; preds = %85
  %89 = load i32, ptr %17, align 4
  %90 = load ptr, ptr %10, align 8
  store i32 %89, ptr %90, align 4
  br label %91

91:                                               ; preds = %88, %85
  %92 = load ptr, ptr %11, align 8
  %93 = icmp ne ptr %92, null
  br i1 %93, label %94, label %97

94:                                               ; preds = %91
  %95 = load i32, ptr %19, align 4
  %96 = load ptr, ptr %11, align 8
  store i32 %95, ptr %96, align 4
  br label %97

97:                                               ; preds = %94, %91
  store i1 true, ptr %6, align 1
  store i32 1, ptr %13, align 4
  br label %98

98:                                               ; preds = %97, %78
  call void @llvm.lifetime.end.p0(i64 4, ptr %19) #18
  call void @llvm.lifetime.end.p0(i64 4, ptr %18) #18
  call void @llvm.lifetime.end.p0(i64 4, ptr %17) #18
  br label %99

99:                                               ; preds = %98, %53
  call void @llvm.lifetime.end.p0(i64 8, ptr %16) #18
  br label %100

100:                                              ; preds = %99, %44
  %101 = load i1, ptr %6, align 1
  ret i1 %101

102:                                              ; preds = %44
  unreachable
}