; Function Attrs: null_pointer_is_valid sspstrong uwtable
define hidden noundef zeroext i1 @tls_get_cipher_info(ptr noundef %0, i16 noundef zeroext %1, ptr noundef writeonly captures(address_is_null) %2, ptr noundef writeonly captures(address_is_null) %3, ptr noundef writeonly captures(address_is_null) %4) local_unnamed_addr #0 {
  %6 = icmp eq i16 %1, 0
  br i1 %6, label %7, label %17

7:                                                ; preds = %5
  %8 = tail call ptr @find_conversation_pinfo(ptr noundef %0, i32 noundef 0)
  %.not = icmp eq ptr %8, null
  br i1 %.not, label %.thread, label %9

9:                                                ; preds = %7
  %10 = load i32, ptr @proto_tls, align 4
  %11 = tail call ptr @conversation_get_proto_data(ptr noundef nonnull %8, i32 noundef %10)
  %12 = icmp eq ptr %11, null
  br i1 %12, label %.thread, label %13

13:                                               ; preds = %9
  %14 = getelementptr inbounds nuw i8, ptr %11, i64 648
  %15 = load i32, ptr %14, align 8
  %16 = trunc i32 %15 to i16
  br label %17

17:                                               ; preds = %13, %5
  %.028 = phi i16 [ %16, %13 ], [ %1, %5 ]
  %18 = zext i16 %.028 to i32
  %19 = tail call ptr @ssl_find_cipher(i32 noundef %18)
  %.not41 = icmp eq ptr %19, null
  br i1 %.not41, label %.thread, label %20

20:                                               ; preds = %17
  %21 = getelementptr inbounds nuw i8, ptr %19, i64 16
  %22 = load i32, ptr %21, align 4
  %23 = zext i32 %22 to i64
  %24 = getelementptr [6 x i32], ptr @tls_get_cipher_info.gcry_modes, i64 0, i64 %23
  %25 = load i32, ptr %24, align 4
  %26 = tail call i32 @ssl_get_cipher_algo(ptr noundef nonnull %19)
  %27 = getelementptr inbounds nuw i8, ptr %19, i64 12
  %28 = load i32, ptr %27, align 4
  %29 = add i32 %28, -64
  %30 = sext i32 %29 to i64
  %31 = getelementptr [5 x i32], ptr @tls_get_cipher_info.gcry_mds, i64 0, i64 %30
  %32 = load i32, ptr %31, align 4
  %33 = icmp ne i32 %26, 0
  %34 = icmp ne i32 %29, 4
  %or.cond3.not = and i1 %33, %34
  br i1 %or.cond3.not, label %35, label %.thread

35:                                               ; preds = %20
  %.not42 = icmp eq ptr %2, null
  br i1 %.not42, label %37, label %36

36:                                               ; preds = %35
  store i32 %26, ptr %2, align 4
  br label %37

37:                                               ; preds = %36, %35
  %.not43 = icmp eq ptr %3, null
  br i1 %.not43, label %39, label %38

38:                                               ; preds = %37
  store i32 %25, ptr %3, align 4
  br label %39

39:                                               ; preds = %38, %37
  %.not44 = icmp eq ptr %4, null
  br i1 %.not44, label %.thread, label %40

40:                                               ; preds = %39
  store i32 %32, ptr %4, align 4
  br label %.thread

.thread:                                          ; preds = %9, %7, %17, %39, %40, %20
  %.2 = phi i1 [ false, %17 ], [ true, %39 ], [ true, %40 ], [ false, %20 ], [ false, %7 ], [ false, %9 ]
  ret i1 %.2
}